; ModuleID = '29/891.c'
source_filename = "29/891.c"
target datalayout = "e-m:e-p270:32:32-p271:32:32-p272:64:64-i64:64-f80:128-n8:16:32:64-S128"
target triple = "x86_64-pc-linux-gnu"

@.str = private unnamed_addr constant [3 x i8] c"%d\00", align 1
@.str.1 = private unnamed_addr constant [4 x i8] c"%lf\00", align 1
@.str.2 = private unnamed_addr constant [7 x i8] c"%.3lf\0A\00", align 1

; Function Attrs: noinline nounwind uwtable
define dso_local i32 @main() #0 {
  %1 = alloca i32, align 4
  %2 = alloca i32, align 4
  %3 = alloca i32, align 4
  %4 = alloca i32, align 4
  %5 = alloca [999 x double], align 16
  %6 = alloca [999 x double], align 16
  %7 = alloca i32, align 4
  %8 = alloca i32, align 4
  %9 = alloca i32, align 4
  %10 = alloca i32, align 4
  %11 = alloca i32, align 4
  %12 = alloca i32, align 4
  store i32 0, i32* %1, align 4
  %13 = call i32 (i8*, ...) @__isoc99_scanf(i8* getelementptr inbounds ([3 x i8], [3 x i8]* @.str, i64 0, i64 0), i32* %2)
  %14 = bitcast [999 x double]* %6 to i8*
  call void @llvm.memset.p0i8.i64(i8* align 16 %14, i8 0, i64 7992, i1 false)
  store i32 1, i32* %3, align 4
  br label %15

15:                                               ; preds = %24, %0
  %16 = load i32, i32* %3, align 4
  %17 = load i32, i32* %2, align 4
  %18 = icmp sle i32 %16, %17
  br i1 %18, label %19, label %27

19:                                               ; preds = %15
  %20 = load i32, i32* %3, align 4
  %21 = sext i32 %20 to i64
  %22 = getelementptr inbounds [999 x double], [999 x double]* %5, i64 0, i64 %21
  %23 = call i32 (i8*, ...) @__isoc99_scanf(i8* getelementptr inbounds ([4 x i8], [4 x i8]* @.str.1, i64 0, i64 0), double* %22)
  br label %24

24:                                               ; preds = %19
  %25 = load i32, i32* %3, align 4
  %26 = add nsw i32 %25, 1
  store i32 %26, i32* %3, align 4
  br label %15

27:                                               ; preds = %15
  store i32 1, i32* %3, align 4
  br label %28

28:                                               ; preds = %77, %27
  %29 = load i32, i32* %3, align 4
  %30 = load i32, i32* %2, align 4
  %31 = icmp sle i32 %29, %30
  br i1 %31, label %32, label %80

32:                                               ; preds = %28
  store i32 1, i32* %7, align 4
  store i32 2, i32* %8, align 4
  store i32 1, i32* %9, align 4
  store i32 1, i32* %10, align 4
  store i32 1, i32* %4, align 4
  br label %33

33:                                               ; preds = %68, %32
  %34 = load i32, i32* %4, align 4
  %35 = sitofp i32 %34 to double
  %36 = load i32, i32* %3, align 4
  %37 = sext i32 %36 to i64
  %38 = getelementptr inbounds [999 x double], [999 x double]* %5, i64 0, i64 %37
  %39 = load double, double* %38, align 8
  %40 = fcmp ole double %35, %39
  br i1 %40, label %41, label %71

41:                                               ; preds = %33
  %42 = load i32, i32* %3, align 4
  %43 = sext i32 %42 to i64
  %44 = getelementptr inbounds [999 x double], [999 x double]* %6, i64 0, i64 %43
  %45 = load double, double* %44, align 8
  %46 = load i32, i32* %8, align 4
  %47 = sitofp i32 %46 to double
  %48 = fmul double 1.000000e+00, %47
  %49 = load i32, i32* %10, align 4
  %50 = sitofp i32 %49 to double
  %51 = fdiv double %48, %50
  %52 = fadd double %45, %51
  %53 = load i32, i32* %3, align 4
  %54 = sext i32 %53 to i64
  %55 = getelementptr inbounds [999 x double], [999 x double]* %6, i64 0, i64 %54
  store double %52, double* %55, align 8
  %56 = load i32, i32* %8, align 4
  store i32 %56, i32* %11, align 4
  %57 = load i32, i32* %7, align 4
  %58 = load i32, i32* %8, align 4
  %59 = add nsw i32 %57, %58
  store i32 %59, i32* %12, align 4
  %60 = load i32, i32* %11, align 4
  store i32 %60, i32* %7, align 4
  %61 = load i32, i32* %12, align 4
  store i32 %61, i32* %8, align 4
  %62 = load i32, i32* %10, align 4
  store i32 %62, i32* %11, align 4
  %63 = load i32, i32* %9, align 4
  %64 = load i32, i32* %10, align 4
  %65 = add nsw i32 %63, %64
  store i32 %65, i32* %12, align 4
  %66 = load i32, i32* %11, align 4
  store i32 %66, i32* %9, align 4
  %67 = load i32, i32* %12, align 4
  store i32 %67, i32* %10, align 4
  br label %68

68:                                               ; preds = %41
  %69 = load i32, i32* %4, align 4
  %70 = add nsw i32 %69, 1
  store i32 %70, i32* %4, align 4
  br label %33

71:                                               ; preds = %33
  %72 = load i32, i32* %3, align 4
  %73 = sext i32 %72 to i64
  %74 = getelementptr inbounds [999 x double], [999 x double]* %6, i64 0, i64 %73
  %75 = load double, double* %74, align 8
  %76 = call i32 (i8*, ...) @printf(i8* getelementptr inbounds ([7 x i8], [7 x i8]* @.str.2, i64 0, i64 0), double %75)
  br label %77

77:                                               ; preds = %71
  %78 = load i32, i32* %3, align 4
  %79 = add nsw i32 %78, 1
  store i32 %79, i32* %3, align 4
  br label %28

80:                                               ; preds = %28
  ret i32 0
}

declare dso_local i32 @__isoc99_scanf(i8*, ...) #1

; Function Attrs: argmemonly nounwind willreturn
declare void @llvm.memset.p0i8.i64(i8* nocapture writeonly, i8, i64, i1 immarg) #2

declare dso_local i32 @printf(i8*, ...) #1


!llvm.module.flags = !{!0}
!llvm.ident = !{!1}

!0 = !{i32 1, !"wchar_size", i32 4}
!1 = !{!"clang version 10.0.0-4ubuntu1 "}
